target datalayout = "e-m:e-p270:32:32-p271:32:32-p272:64:64-i64:64-i128:128-f80:128-n8:16:32:64-S128"
target triple = "x86_64-unknown-linux-gnu"

%class.rational = type { %class.mpq }
%class.mpq = type { %class.mpz, %class.mpz }
%class.mpz = type { i32, i8, ptr }

@_ZN8rational13g_mpq_managerE = external global ptr, align 8

; Function Attrs: mustprogress uwtable
define linkonce_odr hidden void @_ZN11mpz_managerILb1EE3delER3mpz(ptr noundef nonnull align 8 dereferenceable(600) %this, ptr noundef nonnull align 8 dereferenceable(16) %a) #5 comdat align 2 {
entry:
  %this.addr = alloca ptr, align 8
  %a.addr = alloca ptr, align 8
  store ptr %this, ptr %this.addr, align 8
  store ptr %a, ptr %a.addr, align 8
  %this1 = load ptr, ptr %this.addr, align 8
  %0 = load ptr, ptr %a.addr, align 8
  call void @_ZN11mpz_managerILb1EE3delEPS0_R3mpz(ptr noundef %this1, ptr noundef nonnull align 8 dereferenceable(16) %0)
  ret void
}

; Function Attrs: mustprogress uwtable
define linkonce_odr hidden void @_ZN11mpq_managerILb1EE3delER3mpz(ptr noundef nonnull align 8 dereferenceable(728) %this, ptr noundef nonnull align 8 dereferenceable(16) %a) #5 comdat align 2 {
entry:
  %this.addr = alloca ptr, align 8
  %a.addr = alloca ptr, align 8
  store ptr %this, ptr %this.addr, align 8
  store ptr %a, ptr %a.addr, align 8
  %this1 = load ptr, ptr %this.addr, align 8
  %0 = load ptr, ptr %a.addr, align 8
  call void @_ZN11mpz_managerILb1EE3delER3mpz(ptr noundef nonnull align 8 dereferenceable(600) %this1, ptr noundef nonnull align 8 dereferenceable(16) %0)
  ret void
}

; Function Attrs: mustprogress nounwind uwtable
define linkonce_odr hidden void @_ZN3mpzC2Ei(ptr noundef nonnull align 8 dereferenceable(16) %this, i32 noundef %v) unnamed_addr #4 comdat align 2 {
entry:
  %this.addr = alloca ptr, align 8
  %v.addr = alloca i32, align 4
  store ptr %this, ptr %this.addr, align 8
  store i32 %v, ptr %v.addr, align 4
  %this1 = load ptr, ptr %this.addr, align 8
  %m_val = getelementptr inbounds %class.mpz, ptr %this1, i32 0, i32 0
  %0 = load i32, ptr %v.addr, align 4
  store i32 %0, ptr %m_val, align 8
  %m_kind = getelementptr inbounds %class.mpz, ptr %this1, i32 0, i32 1
  %bf.load = load i8, ptr %m_kind, align 4
  %bf.clear = and i8 %bf.load, -2
  %bf.set = or i8 %bf.clear, 0
  store i8 %bf.set, ptr %m_kind, align 4
  %m_owner = getelementptr inbounds %class.mpz, ptr %this1, i32 0, i32 1
  %bf.load2 = load i8, ptr %m_owner, align 4
  %bf.clear3 = and i8 %bf.load2, -3
  %bf.set4 = or i8 %bf.clear3, 0
  store i8 %bf.set4, ptr %m_owner, align 4
  %m_ptr = getelementptr inbounds %class.mpz, ptr %this1, i32 0, i32 2
  store ptr null, ptr %m_ptr, align 8
  ret void
}

; Function Attrs: mustprogress nounwind uwtable
define linkonce_odr hidden void @_ZN3mpzC2Ev(ptr noundef nonnull align 8 dereferenceable(16) %this) unnamed_addr #4 comdat align 2 {
entry:
  %this.addr = alloca ptr, align 8
  store ptr %this, ptr %this.addr, align 8
  %this1 = load ptr, ptr %this.addr, align 8
  %m_val = getelementptr inbounds %class.mpz, ptr %this1, i32 0, i32 0
  store i32 0, ptr %m_val, align 8
  %m_kind = getelementptr inbounds %class.mpz, ptr %this1, i32 0, i32 1
  %bf.load = load i8, ptr %m_kind, align 4
  %bf.clear = and i8 %bf.load, -2
  %bf.set = or i8 %bf.clear, 0
  store i8 %bf.set, ptr %m_kind, align 4
  %m_owner = getelementptr inbounds %class.mpz, ptr %this1, i32 0, i32 1
  %bf.load2 = load i8, ptr %m_owner, align 4
  %bf.clear3 = and i8 %bf.load2, -3
  %bf.set4 = or i8 %bf.clear3, 0
  store i8 %bf.set4, ptr %m_owner, align 4
  %m_ptr = getelementptr inbounds %class.mpz, ptr %this1, i32 0, i32 2
  store ptr null, ptr %m_ptr, align 8
  ret void
}

; Function Attrs: mustprogress uwtable
define linkonce_odr hidden void @_ZN11mpq_managerILb1EE17reset_denominatorER3mpq(ptr noundef nonnull align 8 dereferenceable(728) %this, ptr noundef nonnull align 8 dereferenceable(32) %a) #5 comdat align 2 {
entry:
  %this.addr = alloca ptr, align 8
  %a.addr = alloca ptr, align 8
  store ptr %this, ptr %this.addr, align 8
  store ptr %a, ptr %a.addr, align 8
  %this1 = load ptr, ptr %this.addr, align 8
  %0 = load ptr, ptr %a.addr, align 8
  %m_den = getelementptr inbounds %class.mpq, ptr %0, i32 0, i32 1
  call void @_ZN11mpq_managerILb1EE3delER3mpz(ptr noundef nonnull align 8 dereferenceable(728) %this1, ptr noundef nonnull align 8 dereferenceable(16) %m_den)
  %1 = load ptr, ptr %a.addr, align 8
  %m_den2 = getelementptr inbounds %class.mpq, ptr %1, i32 0, i32 1
  %m_val = getelementptr inbounds %class.mpz, ptr %m_den2, i32 0, i32 0
  store i32 1, ptr %m_val, align 8
  ret void
}

; Function Attrs: mustprogress uwtable
define linkonce_odr hidden void @_ZN3mpqC2Ev(ptr noundef nonnull align 8 dereferenceable(32) %this) unnamed_addr #5 comdat align 2 {
entry:
  %this.addr = alloca ptr, align 8
  store ptr %this, ptr %this.addr, align 8
  %this1 = load ptr, ptr %this.addr, align 8
  %m_num = getelementptr inbounds %class.mpq, ptr %this1, i32 0, i32 0
  call void @_ZN3mpzC2Ev(ptr noundef nonnull align 8 dereferenceable(16) %m_num)
  %m_den = getelementptr inbounds %class.mpq, ptr %this1, i32 0, i32 1
  call void @_ZN3mpzC2Ei(ptr noundef nonnull align 8 dereferenceable(16) %m_den, i32 noundef 1)
  ret void
}

; Function Attrs: mustprogress uwtable
define linkonce_odr hidden void @_ZN11mpq_managerILb1EE5floorERK3mpqRS1_(ptr noundef nonnull align 8 dereferenceable(728) %this, ptr noundef nonnull align 8 dereferenceable(32) %a, ptr noundef nonnull align 8 dereferenceable(32) %f) #5 comdat align 2 {
entry:
  %this.addr = alloca ptr, align 8
  %a.addr = alloca ptr, align 8
  %f.addr = alloca ptr, align 8
  store ptr %this, ptr %this.addr, align 8
  store ptr %a, ptr %a.addr, align 8
  store ptr %f, ptr %f.addr, align 8
  %this1 = load ptr, ptr %this.addr, align 8
  %0 = load ptr, ptr %a.addr, align 8
  %1 = load ptr, ptr %f.addr, align 8
  %m_num = getelementptr inbounds %class.mpq, ptr %1, i32 0, i32 0
  call void @_ZN11mpq_managerILb1EE5floorERK3mpqR3mpz(ptr noundef nonnull align 8 dereferenceable(728) %this1, ptr noundef nonnull align 8 dereferenceable(32) %0, ptr noundef nonnull align 8 dereferenceable(16) %m_num)
  %2 = load ptr, ptr %f.addr, align 8
  call void @_ZN11mpq_managerILb1EE17reset_denominatorER3mpq(ptr noundef nonnull align 8 dereferenceable(728) %this1, ptr noundef nonnull align 8 dereferenceable(32) %2)
  ret void
}

; Function Attrs: mustprogress nounwind uwtable
define linkonce_odr hidden noundef nonnull align 8 dereferenceable(728) ptr @_ZN8rational1mEv() #4 comdat align 2 {
entry:
  %0 = load ptr, ptr @_ZN8rational13g_mpq_managerE, align 8
  ret ptr %0
}

; Function Attrs: mustprogress uwtable
define linkonce_odr hidden void @_ZN8rationalC2Ev(ptr noundef nonnull align 8 dereferenceable(32) %this) unnamed_addr #5 comdat align 2 {
entry:
  %this.addr = alloca ptr, align 8
  store ptr %this, ptr %this.addr, align 8
  %this1 = load ptr, ptr %this.addr, align 8
  %m_val = getelementptr inbounds %class.rational, ptr %this1, i32 0, i32 0
  call void @_ZN3mpqC2Ev(ptr noundef nonnull align 8 dereferenceable(32) %m_val)
  ret void
}

; Function Attrs: mustprogress uwtable
define linkonce_odr hidden void @_Z5floorRK8rational(ptr noalias sret(%class.rational) align 8 %agg.result, ptr noundef nonnull align 8 dereferenceable(32) %r) #5 comdat personality ptr @__gxx_personality_v0 {
entry:
  %result.ptr = alloca ptr, align 8
  %r.addr = alloca ptr, align 8
  %nrvo = alloca i1, align 1
  %exn.slot = alloca ptr, align 8
  %ehselector.slot = alloca i32, align 4
  store ptr %agg.result, ptr %result.ptr, align 8
  store ptr %r, ptr %r.addr, align 8
  store i1 false, ptr %nrvo, align 1
  call void @_ZN8rationalC2Ev(ptr noundef nonnull align 8 dereferenceable(32) %agg.result)
  %call = call noundef nonnull align 8 dereferenceable(728) ptr @_ZN8rational1mEv()
  %0 = load ptr, ptr %r.addr, align 8
  %m_val = getelementptr inbounds %class.rational, ptr %0, i32 0, i32 0
  %m_val1 = getelementptr inbounds %class.rational, ptr %agg.result, i32 0, i32 0
  invoke void @_ZN11mpq_managerILb1EE5floorERK3mpqRS1_(ptr noundef nonnull align 8 dereferenceable(728) %call, ptr noundef nonnull align 8 dereferenceable(32) %m_val, ptr noundef nonnull align 8 dereferenceable(32) %m_val1)
          to label %invoke.cont unwind label %lpad

invoke.cont:                                      ; preds = %entry
  store i1 true, ptr %nrvo, align 1
  %nrvo.val = load i1, ptr %nrvo, align 1
  br i1 %nrvo.val, label %nrvo.skipdtor, label %nrvo.unused

lpad:                                             ; preds = %entry
  %1 = landingpad { ptr, i32 }
          cleanup
  %2 = extractvalue { ptr, i32 } %1, 0
  store ptr %2, ptr %exn.slot, align 8
  %3 = extractvalue { ptr, i32 } %1, 1
  store i32 %3, ptr %ehselector.slot, align 4
  call void @_ZN8rationalD2Ev(ptr noundef nonnull align 8 dereferenceable(32) %agg.result) #3
  br label %eh.resume

nrvo.unused:                                      ; preds = %invoke.cont
  call void @_ZN8rationalD2Ev(ptr noundef nonnull align 8 dereferenceable(32) %agg.result) #3
  br label %nrvo.skipdtor

nrvo.skipdtor:                                    ; preds = %nrvo.unused, %invoke.cont
  ret void

eh.resume:                                        ; preds = %lpad
  %exn = load ptr, ptr %exn.slot, align 8
  %sel = load i32, ptr %ehselector.slot, align 4
  %lpad.val = insertvalue { ptr, i32 } poison, ptr %exn, 0
  %lpad.val2 = insertvalue { ptr, i32 } %lpad.val, i32 %sel, 1
  resume { ptr, i32 } %lpad.val2
}

; Function Attrs: mustprogress uwtable
define internal void @_ZN2lpL15fractional_partERK8rational(ptr noalias sret(%class.rational) align 8 %agg.result, ptr noundef nonnull align 8 dereferenceable(32) %n) #5 personality ptr @__gxx_personality_v0 {
entry:
  %result.ptr = alloca ptr, align 8
  %n.addr = alloca ptr, align 8
  %ref.tmp = alloca %class.rational, align 8
  %exn.slot = alloca ptr, align 8
  %ehselector.slot = alloca i32, align 4
  store ptr %agg.result, ptr %result.ptr, align 8
  store ptr %n, ptr %n.addr, align 8
  %0 = load ptr, ptr %n.addr, align 8
  %1 = load ptr, ptr %n.addr, align 8
  call void @_Z5floorRK8rational(ptr sret(%class.rational) align 8 %ref.tmp, ptr noundef nonnull align 8 dereferenceable(32) %1)
  invoke void @_ZmiRK8rationalS1_(ptr sret(%class.rational) align 8 %agg.result, ptr noundef nonnull align 8 dereferenceable(32) %0, ptr noundef nonnull align 8 dereferenceable(32) %ref.tmp)
          to label %invoke.cont unwind label %lpad

invoke.cont:                                      ; preds = %entry
  call void @_ZN8rationalD2Ev(ptr noundef nonnull align 8 dereferenceable(32) %ref.tmp) #3
  ret void

lpad:                                             ; preds = %entry
  %2 = landingpad { ptr, i32 }
          cleanup
  %3 = extractvalue { ptr, i32 } %2, 0
  store ptr %3, ptr %exn.slot, align 8
  %4 = extractvalue { ptr, i32 } %2, 1
  store i32 %4, ptr %ehselector.slot, align 4
  call void @_ZN8rationalD2Ev(ptr noundef nonnull align 8 dereferenceable(32) %ref.tmp) #3
  br label %eh.resume

eh.resume:                                        ; preds = %lpad
  %exn = load ptr, ptr %exn.slot, align 8
  %sel = load i32, ptr %ehselector.slot, align 4
  %lpad.val = insertvalue { ptr, i32 } poison, ptr %exn, 0
  %lpad.val1 = insertvalue { ptr, i32 } %lpad.val, i32 %sel, 1
  resume { ptr, i32 } %lpad.val1
}