; Function Attrs: mustprogress uwtable
define internal fastcc void @_ZN2lpL15fractional_partERK8rational(ptr noalias align 8 %agg.result, ptr noundef nonnull align 8 dereferenceable(32) %n) unnamed_addr #3 personality ptr @__gxx_personality_v0 {
entry:
  %ref.tmp = alloca %class.rational, align 8
  tail call void @llvm.experimental.noalias.scope.decl(metadata !17)
  store i32 0, ptr %ref.tmp, align 8, !alias.scope !17
  %m_kind.i.i.i.i = getelementptr inbounds i8, ptr %ref.tmp, i64 4
  store i8 0, ptr %m_kind.i.i.i.i, align 4, !alias.scope !17
  %m_ptr.i.i.i.i = getelementptr inbounds i8, ptr %ref.tmp, i64 8
  store ptr null, ptr %m_ptr.i.i.i.i, align 8, !alias.scope !17
  %m_den.i.i.i = getelementptr inbounds i8, ptr %ref.tmp, i64 16
  store i32 1, ptr %m_den.i.i.i, align 8, !alias.scope !17
  %m_kind.i1.i.i.i = getelementptr inbounds i8, ptr %ref.tmp, i64 20
  store i8 0, ptr %m_kind.i1.i.i.i, align 4, !alias.scope !17
  %m_ptr.i4.i.i.i = getelementptr inbounds i8, ptr %ref.tmp, i64 24
  store ptr null, ptr %m_ptr.i4.i.i.i, align 8, !alias.scope !17
  %0 = load ptr, ptr @_ZN8rational13g_mpq_managerE, align 8, !noalias !17
  invoke void @_ZN11mpq_managerILb1EE5floorERK3mpqR3mpz(ptr noundef nonnull align 8 dereferenceable(728) %0, ptr noundef nonnull align 8 dereferenceable(32) %n, ptr noundef nonnull align 8 dereferenceable(16) %ref.tmp)
          to label %.noexc.i unwind label %lpad.i

.noexc.i:                                         ; preds = %entry
  invoke void @_ZN11mpz_managerILb1EE3delEPS0_R3mpz(ptr noundef nonnull %0, ptr noundef nonnull align 8 dereferenceable(16) %m_den.i.i.i)
          to label %_Z5floorRK8rational.exit unwind label %lpad.i

common.resume:                                    ; preds = %lpad, %lpad.i
  %common.resume.op = phi { ptr, i32 } [ %1, %lpad.i ], [ %5, %lpad ]
  call void @_ZN8rationalD2Ev(ptr noundef nonnull align 8 dereferenceable(32) %ref.tmp) #16
  resume { ptr, i32 } %common.resume.op

lpad.i:                                           ; preds = %.noexc.i, %entry
  %1 = landingpad { ptr, i32 }
          cleanup
  br label %common.resume

_Z5floorRK8rational.exit:                         ; preds = %.noexc.i
  store i32 1, ptr %m_den.i.i.i, align 8, !alias.scope !17
  invoke void @_ZmiRK8rationalS1_(ptr sret(%class.rational) align 8 %agg.result, ptr noundef nonnull align 8 dereferenceable(32) %n, ptr noundef nonnull align 8 dereferenceable(32) %ref.tmp)
          to label %invoke.cont unwind label %lpad

invoke.cont:                                      ; preds = %_Z5floorRK8rational.exit
  %2 = load ptr, ptr @_ZN8rational13g_mpq_managerE, align 8
  invoke void @_ZN11mpz_managerILb1EE3delEPS0_R3mpz(ptr noundef %2, ptr noundef nonnull align 8 dereferenceable(16) %ref.tmp)
          to label %.noexc.i2 unwind label %terminate.lpad.i

.noexc.i2:                                        ; preds = %invoke.cont
  invoke void @_ZN11mpz_managerILb1EE3delEPS0_R3mpz(ptr noundef %2, ptr noundef nonnull align 8 dereferenceable(16) %m_den.i.i.i)
          to label %_ZN8rationalD2Ev.exit unwind label %terminate.lpad.i

terminate.lpad.i:                                 ; preds = %.noexc.i2, %invoke.cont
  %3 = landingpad { ptr, i32 }
          catch ptr null
  %4 = extractvalue { ptr, i32 } %3, 0
  call void @__clang_call_terminate(ptr %4) #17
  unreachable

_ZN8rationalD2Ev.exit:                            ; preds = %.noexc.i2
  ret void

lpad:                                             ; preds = %_Z5floorRK8rational.exit
  %5 = landingpad { ptr, i32 }
          cleanup
  br label %common.resume
}